target datalayout = "e-m:e-p270:32:32-p271:32:32-p272:64:64-i64:64-i128:128-f80:128-n8:16:32:64-S128"
target triple = "x86_64-pc-linux-gnu"

%"class.Luau::CodeGen::NativeModule" = type { %"struct.std::atomic", ptr, %"class.std::optional", ptr, %"class.std::vector" }
%"struct.std::atomic" = type { %"struct.std::__atomic_base" }
%"struct.std::__atomic_base" = type { i64 }
%"class.std::optional" = type { %"struct.std::_Optional_base" }
%"struct.std::_Optional_base" = type { %"struct.std::_Optional_payload" }
%"struct.std::_Optional_payload" = type { %"struct.std::_Optional_payload_base" }
%"struct.std::_Optional_payload_base" = type { %"union.std::_Optional_payload_base<std::array<unsigned char, 16>>::_Storage", i8 }
%"union.std::_Optional_payload_base<std::array<unsigned char, 16>>::_Storage" = type { %"struct.std::array" }
%"struct.std::array" = type { [16 x i8] }
%"class.std::vector" = type { %"struct.std::_Vector_base" }
%"struct.std::_Vector_base" = type { %"struct.std::_Vector_base<std::unique_ptr<unsigned int[], Luau::CodeGen::NativeProtoExecDataDeleter>, std::allocator<std::unique_ptr<unsigned int[], Luau::CodeGen::NativeProtoExecDataDeleter>>>::_Vector_impl" }
%"struct.std::_Vector_base<std::unique_ptr<unsigned int[], Luau::CodeGen::NativeProtoExecDataDeleter>, std::allocator<std::unique_ptr<unsigned int[], Luau::CodeGen::NativeProtoExecDataDeleter>>>::_Vector_impl" = type { %"struct.std::_Vector_base<std::unique_ptr<unsigned int[], Luau::CodeGen::NativeProtoExecDataDeleter>, std::allocator<std::unique_ptr<unsigned int[], Luau::CodeGen::NativeProtoExecDataDeleter>>>::_Vector_impl_data" }
%"struct.std::_Vector_base<std::unique_ptr<unsigned int[], Luau::CodeGen::NativeProtoExecDataDeleter>, std::allocator<std::unique_ptr<unsigned int[], Luau::CodeGen::NativeProtoExecDataDeleter>>>::_Vector_impl_data" = type { ptr, ptr, ptr }
%"class.Luau::CodeGen::NativeModuleRef" = type { ptr }

; Function Attrs: mustprogress nounwind uwtable
define dso_local noundef i64 @_ZNK4Luau7CodeGen12NativeModule6addRefEv(ptr noundef nonnull align 8 dereferenceable(72) %0) #0 align 2 {
  %2 = alloca ptr, align 8
  %3 = alloca i64, align 8
  %4 = alloca i32, align 4
  %5 = alloca i64, align 8
  %6 = alloca i64, align 8
  %7 = alloca ptr, align 8
  store ptr %0, ptr %7, align 8
  %8 = load ptr, ptr %7, align 8
  %9 = getelementptr inbounds %"class.Luau::CodeGen::NativeModule", ptr %8, i32 0, i32 0
  store ptr %9, ptr %2, align 8
  store i64 1, ptr %3, align 8
  store i32 5, ptr %4, align 4
  %10 = load ptr, ptr %2, align 8
  %11 = load i32, ptr %4, align 4
  %12 = load i64, ptr %3, align 8
  store i64 %12, ptr %5, align 8
  switch i32 %11, label %13 [
    i32 1, label %16
    i32 2, label %16
    i32 3, label %19
    i32 4, label %22
    i32 5, label %25
  ]

13:                                               ; preds = %1
  %14 = load i64, ptr %5, align 8
  %15 = atomicrmw add ptr %10, i64 %14 monotonic, align 8
  store i64 %15, ptr %6, align 8
  br label %28

16:                                               ; preds = %1, %1
  %17 = load i64, ptr %5, align 8
  %18 = atomicrmw add ptr %10, i64 %17 acquire, align 8
  store i64 %18, ptr %6, align 8
  br label %28

19:                                               ; preds = %1
  %20 = load i64, ptr %5, align 8
  %21 = atomicrmw add ptr %10, i64 %20 release, align 8
  store i64 %21, ptr %6, align 8
  br label %28

22:                                               ; preds = %1
  %23 = load i64, ptr %5, align 8
  %24 = atomicrmw add ptr %10, i64 %23 acq_rel, align 8
  store i64 %24, ptr %6, align 8
  br label %28

25:                                               ; preds = %1
  %26 = load i64, ptr %5, align 8
  %27 = atomicrmw add ptr %10, i64 %26 seq_cst, align 8
  store i64 %27, ptr %6, align 8
  br label %28

28:                                               ; preds = %25, %22, %19, %16, %13
  %29 = load i64, ptr %6, align 8
  %30 = add i64 %29, 1
  ret i64 %30
}

; Function Attrs: mustprogress nounwind uwtable
define dso_local void @_ZN4Luau7CodeGen15NativeModuleRefC2EPKNS0_12NativeModuleE(ptr noundef nonnull align 8 dereferenceable(8) %0, ptr noundef %1) unnamed_addr #0 align 2 {
  %3 = alloca ptr, align 8
  %4 = alloca ptr, align 8
  store ptr %0, ptr %3, align 8
  store ptr %1, ptr %4, align 8
  %5 = load ptr, ptr %3, align 8
  %6 = getelementptr inbounds %"class.Luau::CodeGen::NativeModuleRef", ptr %5, i32 0, i32 0
  %7 = load ptr, ptr %4, align 8
  store ptr %7, ptr %6, align 8
  %8 = load ptr, ptr %4, align 8
  %9 = icmp ne ptr %8, null
  br i1 %9, label %10, label %13

10:                                               ; preds = %2
  %11 = load ptr, ptr %4, align 8
  %12 = call noundef i64 @_ZNK4Luau7CodeGen12NativeModule6addRefEv(ptr noundef nonnull align 8 dereferenceable(72) %11) #14
  br label %13

13:                                               ; preds = %10, %2
  ret void
}