; Function Attrs: mustprogress nofree norecurse nounwind willreturn memory(argmem: readwrite) uwtable
define dso_local void @_ZN4Luau7CodeGen15NativeModuleRefC2EPKNS0_12NativeModuleE(ptr nocapture noundef nonnull writeonly align 8 dereferenceable(8) %0, ptr noundef %1) unnamed_addr #4 align 2 {
  store ptr %1, ptr %0, align 8
  %.not = icmp eq ptr %1, null
  br i1 %.not, label %5, label %3

3:                                                ; preds = %2
  %4 = atomicrmw add ptr %1, i64 1 seq_cst, align 8
  br label %5

5:                                                ; preds = %3, %2
  ret void
}